; Function Attrs: mustprogress nofree norecurse nosync nounwind willreturn memory(argmem: write) uwtable
define void @Cbs0_SetDefaultParams(ptr noundef writeonly captures(none) initializes((0, 40)) %0) local_unnamed_addr #0 {
  %2 = getelementptr inbounds nuw i8, ptr %0, i64 8
  tail call void @llvm.memset.p0.i64(ptr noundef nonnull align 4 dereferenceable(40) %2, i8 0, i64 16, i1 false)
  store i32 1000, ptr %0, align 4, !tbaa !3
  %3 = getelementptr inbounds nuw i8, ptr %0, i64 4
  store i32 100, ptr %3, align 4, !tbaa !8
  %4 = getelementptr inbounds nuw i8, ptr %0, i64 24
  store i32 1, ptr %4, align 4, !tbaa !9
  %5 = getelementptr inbounds nuw i8, ptr %0, i64 28
  store i32 0, ptr %5, align 4, !tbaa !10
  %6 = getelementptr inbounds nuw i8, ptr %0, i64 32
  store i32 0, ptr %6, align 4, !tbaa !11
  %7 = getelementptr inbounds nuw i8, ptr %0, i64 36
  store i32 1, ptr %7, align 4, !tbaa !12
  ret void
}